; Function Attrs: mustprogress uwtable
define void @_ZN4YAML4LoadERKNSt7__cxx1112basic_stringIcSt11char_traitsIcESaIcEEE(ptr dead_on_unwind noalias writable sret(%"class.YAML::Node") align 8 %0, ptr noundef nonnull align 8 dereferenceable(32) %1) local_unnamed_addr #0 personality ptr @__gxx_personality_v0 {
  %3 = alloca %"class.std::__cxx11::basic_stringstream", align 8
  call void @llvm.lifetime.start.p0(i64 392, ptr nonnull %3) #20
  call void @_ZNSt7__cxx1118basic_stringstreamIcSt11char_traitsIcESaIcEEC1ERKNS_12basic_stringIcS2_S3_EESt13_Ios_Openmode(ptr noundef nonnull align 8 dereferenceable(128) %3, ptr noundef nonnull align 8 dereferenceable(32) %1, i32 noundef 24)
  invoke void @_ZN4YAML4LoadERSi(ptr dead_on_unwind writable sret(%"class.YAML::Node") align 8 %0, ptr noundef nonnull align 8 dereferenceable(16) %3)
          to label %4 unwind label %28

4:                                                ; preds = %2
  %5 = load ptr, ptr @_ZTTNSt7__cxx1118basic_stringstreamIcSt11char_traitsIcESaIcEEE, align 8
  store ptr %5, ptr %3, align 8, !tbaa !3
  %6 = load ptr, ptr getelementptr inbounds nuw (i8, ptr @_ZTTNSt7__cxx1118basic_stringstreamIcSt11char_traitsIcESaIcEEE, i64 64), align 8
  %7 = getelementptr i8, ptr %5, i64 -24
  %8 = load i64, ptr %7, align 8
  %9 = getelementptr inbounds i8, ptr %3, i64 %8
  store ptr %6, ptr %9, align 8, !tbaa !3
  %10 = load ptr, ptr getelementptr inbounds nuw (i8, ptr @_ZTTNSt7__cxx1118basic_stringstreamIcSt11char_traitsIcESaIcEEE, i64 72), align 8
  %11 = getelementptr inbounds nuw i8, ptr %3, i64 16
  store ptr %10, ptr %11, align 8, !tbaa !3
  %12 = getelementptr inbounds nuw i8, ptr %3, i64 24
  store ptr getelementptr inbounds nuw inrange(-16, 112) (i8, ptr @_ZTVNSt7__cxx1115basic_stringbufIcSt11char_traitsIcESaIcEEE, i64 16), ptr %12, align 8, !tbaa !3
  %13 = getelementptr inbounds nuw i8, ptr %3, i64 96
  %14 = load ptr, ptr %13, align 8, !tbaa !6
  %15 = getelementptr inbounds nuw i8, ptr %3, i64 112
  %16 = icmp eq ptr %14, %15
  br i1 %16, label %_ZNKSt7__cxx1112basic_stringIcSt11char_traitsIcESaIcEE11_M_is_localEv.exit.thread.i.i.i.i.i, label %_ZNKSt7__cxx1112basic_stringIcSt11char_traitsIcESaIcEE11_M_is_localEv.exit.i.i.i.i.i

_ZNKSt7__cxx1112basic_stringIcSt11char_traitsIcESaIcEE11_M_is_localEv.exit.thread.i.i.i.i.i: ; preds = %4
  %17 = getelementptr inbounds nuw i8, ptr %3, i64 104
  %18 = load i64, ptr %17, align 8, !tbaa !13
  %19 = icmp ult i64 %18, 16
  call void @llvm.assume(i1 %19)
  br label %_ZNSt7__cxx1118basic_stringstreamIcSt11char_traitsIcESaIcEED1Ev.exit

_ZNKSt7__cxx1112basic_stringIcSt11char_traitsIcESaIcEE11_M_is_localEv.exit.i.i.i.i.i: ; preds = %4
  call void @_ZdlPv(ptr noundef %14) #21
  br label %_ZNSt7__cxx1118basic_stringstreamIcSt11char_traitsIcESaIcEED1Ev.exit

_ZNSt7__cxx1118basic_stringstreamIcSt11char_traitsIcESaIcEED1Ev.exit: ; preds = %_ZNKSt7__cxx1112basic_stringIcSt11char_traitsIcESaIcEE11_M_is_localEv.exit.thread.i.i.i.i.i, %_ZNKSt7__cxx1112basic_stringIcSt11char_traitsIcESaIcEE11_M_is_localEv.exit.i.i.i.i.i
  store ptr getelementptr inbounds nuw inrange(-16, 112) (i8, ptr @_ZTVSt15basic_streambufIcSt11char_traitsIcEE, i64 16), ptr %12, align 8, !tbaa !3
  %20 = getelementptr inbounds nuw i8, ptr %3, i64 80
  call void @_ZNSt6localeD1Ev(ptr noundef nonnull align 8 dereferenceable(8) %20) #20
  %21 = load ptr, ptr getelementptr inbounds nuw (i8, ptr @_ZTTNSt7__cxx1118basic_stringstreamIcSt11char_traitsIcESaIcEEE, i64 16), align 8
  store ptr %21, ptr %3, align 8, !tbaa !3
  %22 = load ptr, ptr getelementptr inbounds nuw (i8, ptr @_ZTTNSt7__cxx1118basic_stringstreamIcSt11char_traitsIcESaIcEEE, i64 24), align 8
  %23 = getelementptr i8, ptr %21, i64 -24
  %24 = load i64, ptr %23, align 8
  %25 = getelementptr inbounds i8, ptr %3, i64 %24
  store ptr %22, ptr %25, align 8, !tbaa !3
  %26 = getelementptr inbounds nuw i8, ptr %3, i64 8
  store i64 0, ptr %26, align 8, !tbaa !14
  %27 = getelementptr inbounds nuw i8, ptr %3, i64 128
  call void @_ZNSt8ios_baseD2Ev(ptr noundef nonnull align 8 dereferenceable(264) %27) #20
  call void @llvm.lifetime.end.p0(i64 392, ptr nonnull %3) #20
  ret void

28:                                               ; preds = %2
  %29 = landingpad { ptr, i32 }
          cleanup
  call void @_ZNSt7__cxx1118basic_stringstreamIcSt11char_traitsIcESaIcEED1Ev(ptr noundef nonnull align 8 dereferenceable(128) %3) #20
  call void @llvm.lifetime.end.p0(i64 392, ptr nonnull %3) #20
  resume { ptr, i32 } %29
}